; Function Attrs: nounwind sspstrong uwtable
define dso_local i64 @rb_require(ptr noundef %0) local_unnamed_addr #0 {
  %2 = alloca %struct.RString, align 8
  call void @llvm.lifetime.start.p0(i64 40, ptr nonnull %2) #7
  %3 = tail call i64 @strlen(ptr noundef nonnull dereferenceable(1) %0) #25
  %4 = call i64 @rb_setup_fake_str(ptr noundef nonnull %2, ptr noundef nonnull %0, i64 noundef %3, ptr noundef null) #7
  %5 = call align 8 ptr @llvm.threadlocal.address.p0(ptr align 8 @ruby_current_ec)
  %6 = load ptr, ptr %5, align 8, !tbaa !55
  %7 = load ptr, ptr @ruby_single_main_ractor, align 8, !tbaa !91
  %.not.i.i = icmp eq ptr %7, null
  br i1 %.not.i.i, label %rb_ractor_main_p.exit.i, label %rb_ractor_main_p.exit.thread.i

rb_ractor_main_p.exit.i:                          ; preds = %1
  %8 = call zeroext i1 @rb_ractor_main_p_() #7
  br i1 %8, label %rb_ractor_main_p.exit.thread.i, label %9

9:                                                ; preds = %rb_ractor_main_p.exit.i
  %10 = call i64 @rb_str_resurrect(i64 noundef %4) #7
  %11 = call i64 @rb_ractor_require(i64 noundef %10) #7
  br label %rb_require_string_internal.exit

rb_ractor_main_p.exit.thread.i:                   ; preds = %rb_ractor_main_p.exit.i, %1
  %12 = call ptr @rb_ruby_verbose_ptr() #7
  %13 = load i64, ptr %12, align 8, !tbaa !42
  %14 = and i64 %13, -5
  %15 = icmp ne i64 %14, 0
  %16 = call fastcc i32 @require_internal(ptr noundef %6, i64 noundef %4, i32 noundef 1, i1 noundef zeroext %15)
  %17 = icmp sgt i32 %16, 1
  br i1 %17, label %18, label %22

18:                                               ; preds = %rb_ractor_main_p.exit.thread.i
  %19 = getelementptr i8, ptr %6, i64 24
  %.val.i = load ptr, ptr %19, align 8, !tbaa !82
  %20 = getelementptr inbounds nuw i8, ptr %.val.i, i64 64
  store i32 %16, ptr %20, align 8, !tbaa !79
  %21 = getelementptr inbounds nuw i8, ptr %.val.i, i64 16
  call void @llvm.eh.sjlj.longjmp(ptr nonnull %21)
  unreachable

22:                                               ; preds = %rb_ractor_main_p.exit.thread.i
  %23 = icmp slt i32 %16, 0
  br i1 %23, label %24, label %26

24:                                               ; preds = %22
  %25 = call i64 @rb_str_resurrect(i64 noundef %4) #7
  call fastcc void @load_failed(i64 noundef %25) #26
  unreachable

26:                                               ; preds = %22
  %.not.i = icmp eq i32 %16, 0
  %27 = select i1 %.not.i, i64 0, i64 20
  br label %rb_require_string_internal.exit

rb_require_string_internal.exit:                  ; preds = %9, %26
  %.0.i = phi i64 [ %27, %26 ], [ %11, %9 ]
  call void @llvm.lifetime.end.p0(i64 40, ptr nonnull %2) #7
  ret i64 %.0.i
}